target datalayout = "e-m:e-p270:32:32-p271:32:32-p272:64:64-i64:64-i128:128-f80:128-n8:16:32:64-S128"
target triple = "x86_64-pc-linux-gnu"

%struct.XLogPageReadPrivate = type { ptr, i32 }
%struct.XLogReaderRoutine = type { ptr, ptr, ptr }
%struct.XLogReaderState = type { %struct.XLogReaderRoutine, i64, ptr, i64, i64, i64, i64, i64, i64, i64, i64, ptr, ptr, i64, i8, ptr, ptr, ptr, ptr, ptr, i32, %struct.WALSegmentContext, %struct.WALOpenSegment, i32, i64, i32, i64, i32, i64, i32, ptr, i32, ptr, i8, i8 }
%struct.WALSegmentContext = type { [1024 x i8], i32 }
%struct.WALOpenSegment = type { i32, i64, i32 }
%struct.TimeLineHistoryEntry = type { i32, i64, i64 }

@WalSegSz = external global i32, align 4
@xlogreadfd = internal global i32 -1, align 4
@.str.7 = private unnamed_addr constant [13 x i8] c"%08X%08X%08X\00", align 1
@xlogreadsegno = internal global i64 0, align 8
@targetNentries = external global i32, align 4
@targetHistory = external global ptr, align 8
@xlogfpath = internal global [1024 x i8] zeroinitializer, align 16
@.str.8 = private unnamed_addr constant [13 x i8] c"%s/pg_wal/%s\00", align 1
@.str.9 = private unnamed_addr constant [29 x i8] c"could not open file \22%s\22: %m\00", align 1
@__pg_log_level = external global i32, align 4
@.str.10 = private unnamed_addr constant [38 x i8] c"using file \22%s\22 restored from archive\00", align 1
@.str.11 = private unnamed_addr constant [32 x i8] c"could not seek in file \22%s\22: %m\00", align 1
@.str.12 = private unnamed_addr constant [29 x i8] c"could not read file \22%s\22: %m\00", align 1
@.str.13 = private unnamed_addr constant [41 x i8] c"could not read file \22%s\22: read %d of %zu\00", align 1

; Function Attrs: inlinehint nounwind uwtable
define internal void @XLogFileName(ptr noundef %0, i32 noundef %1, i64 noundef %2, i32 noundef %3) #4 {
  %5 = alloca ptr, align 8
  %6 = alloca i32, align 4
  %7 = alloca i64, align 8
  %8 = alloca i32, align 4
  store ptr %0, ptr %5, align 8
  store i32 %1, ptr %6, align 4
  store i64 %2, ptr %7, align 8
  store i32 %3, ptr %8, align 4
  %9 = load ptr, ptr %5, align 8
  %10 = load i32, ptr %6, align 4
  %11 = load i64, ptr %7, align 8
  %12 = load i32, ptr %8, align 4
  %13 = sext i32 %12 to i64
  %14 = udiv i64 4294967296, %13
  %15 = udiv i64 %11, %14
  %16 = trunc i64 %15 to i32
  %17 = load i64, ptr %7, align 8
  %18 = load i32, ptr %8, align 4
  %19 = sext i32 %18 to i64
  %20 = udiv i64 4294967296, %19
  %21 = urem i64 %17, %20
  %22 = trunc i64 %21 to i32
  %23 = call i32 (ptr, i64, ptr, ...) @pg_snprintf(ptr noundef %9, i64 noundef 64, ptr noundef @.str.7, i32 noundef %10, i32 noundef %16, i32 noundef %22)
  ret void
}

; Function Attrs: nounwind uwtable
define internal i32 @SimpleXLogPageRead(ptr noundef %0, i64 noundef %1, i32 noundef %2, i64 noundef %3, ptr noundef %4) #0 {
  %6 = alloca i32, align 4
  %7 = alloca ptr, align 8
  %8 = alloca i64, align 8
  %9 = alloca i32, align 4
  %10 = alloca i64, align 8
  %11 = alloca ptr, align 8
  %12 = alloca ptr, align 8
  %13 = alloca i32, align 4
  %14 = alloca i64, align 8
  %15 = alloca i64, align 8
  %16 = alloca i32, align 4
  %17 = alloca [64 x i8], align 16
  %18 = alloca i32, align 4
  store ptr %0, ptr %7, align 8
  store i64 %1, ptr %8, align 8
  store i32 %2, ptr %9, align 4
  store i64 %3, ptr %10, align 8
  store ptr %4, ptr %11, align 8
  call void @llvm.lifetime.start.p0(i64 8, ptr %12) #8
  %19 = load ptr, ptr %7, align 8
  %20 = getelementptr inbounds nuw %struct.XLogReaderState, ptr %19, i32 0, i32 2
  %21 = load ptr, ptr %20, align 8
  store ptr %21, ptr %12, align 8
  call void @llvm.lifetime.start.p0(i64 4, ptr %13) #8
  call void @llvm.lifetime.start.p0(i64 8, ptr %14) #8
  call void @llvm.lifetime.start.p0(i64 8, ptr %15) #8
  call void @llvm.lifetime.start.p0(i64 4, ptr %16) #8
  %22 = load i64, ptr %8, align 8
  %23 = load i32, ptr @WalSegSz, align 4
  %24 = sext i32 %23 to i64
  %25 = udiv i64 %22, %24
  store i64 %25, ptr %15, align 8
  %26 = load i64, ptr %15, align 8
  %27 = add i64 %26, 1
  %28 = load i32, ptr @WalSegSz, align 4
  %29 = sext i32 %28 to i64
  %30 = mul i64 %27, %29
  %31 = add i64 %30, 0
  store i64 %31, ptr %14, align 8
  %32 = load i64, ptr %8, align 8
  %33 = load i32, ptr @WalSegSz, align 4
  %34 = sub i32 %33, 1
  %35 = sext i32 %34 to i64
  %36 = and i64 %32, %35
  %37 = trunc i64 %36 to i32
  store i32 %37, ptr %13, align 4
  %38 = load i32, ptr @xlogreadfd, align 4
  %39 = icmp sge i32 %38, 0
  br i1 %39, label %40, label %50

40:                                               ; preds = %5
  %41 = load i64, ptr %8, align 8
  %42 = load i32, ptr @WalSegSz, align 4
  %43 = sext i32 %42 to i64
  %44 = udiv i64 %41, %43
  %45 = load i64, ptr @xlogreadsegno, align 8
  %46 = icmp eq i64 %44, %45
  br i1 %46, label %50, label %47

47:                                               ; preds = %40
  %48 = load i32, ptr @xlogreadfd, align 4
  %49 = call i32 @close(i32 noundef %48)
  store i32 -1, ptr @xlogreadfd, align 4
  br label %50

50:                                               ; preds = %47, %40, %5
  %51 = load i64, ptr %8, align 8
  %52 = load i32, ptr @WalSegSz, align 4
  %53 = sext i32 %52 to i64
  %54 = udiv i64 %51, %53
  store i64 %54, ptr @xlogreadsegno, align 8
  %55 = load i32, ptr @xlogreadfd, align 4
  %56 = icmp slt i32 %55, 0
  br i1 %56, label %57, label %168

57:                                               ; preds = %50
  call void @llvm.lifetime.start.p0(i64 64, ptr %17) #8
  br label %58

58:                                               ; preds = %78, %57
  %59 = load ptr, ptr %12, align 8
  %60 = getelementptr inbounds nuw %struct.XLogPageReadPrivate, ptr %59, i32 0, i32 1
  %61 = load i32, ptr %60, align 8
  %62 = load i32, ptr @targetNentries, align 4
  %63 = sub i32 %62, 1
  %64 = icmp slt i32 %61, %63
  br i1 %64, label %65, label %76

65:                                               ; preds = %58
  %66 = load ptr, ptr @targetHistory, align 8
  %67 = load ptr, ptr %12, align 8
  %68 = getelementptr inbounds nuw %struct.XLogPageReadPrivate, ptr %67, i32 0, i32 1
  %69 = load i32, ptr %68, align 8
  %70 = sext i32 %69 to i64
  %71 = getelementptr inbounds %struct.TimeLineHistoryEntry, ptr %66, i64 %70
  %72 = getelementptr inbounds nuw %struct.TimeLineHistoryEntry, ptr %71, i32 0, i32 2
  %73 = load i64, ptr %72, align 8
  %74 = load i64, ptr %14, align 8
  %75 = icmp ult i64 %73, %74
  br label %76

76:                                               ; preds = %65, %58
  %77 = phi i1 [ false, %58 ], [ %75, %65 ]
  br i1 %77, label %78, label %83

78:                                               ; preds = %76
  %79 = load ptr, ptr %12, align 8
  %80 = getelementptr inbounds nuw %struct.XLogPageReadPrivate, ptr %79, i32 0, i32 1
  %81 = load i32, ptr %80, align 8
  %82 = add i32 %81, 1
  store i32 %82, ptr %80, align 8
  br label %58, !llvm.loop !6

83:                                               ; preds = %76
  br label %84

84:                                               ; preds = %102, %83
  %85 = load ptr, ptr %12, align 8
  %86 = getelementptr inbounds nuw %struct.XLogPageReadPrivate, ptr %85, i32 0, i32 1
  %87 = load i32, ptr %86, align 8
  %88 = icmp sgt i32 %87, 0
  br i1 %88, label %89, label %100

89:                                               ; preds = %84
  %90 = load ptr, ptr @targetHistory, align 8
  %91 = load ptr, ptr %12, align 8
  %92 = getelementptr inbounds nuw %struct.XLogPageReadPrivate, ptr %91, i32 0, i32 1
  %93 = load i32, ptr %92, align 8
  %94 = sext i32 %93 to i64
  %95 = getelementptr inbounds %struct.TimeLineHistoryEntry, ptr %90, i64 %94
  %96 = getelementptr inbounds nuw %struct.TimeLineHistoryEntry, ptr %95, i32 0, i32 1
  %97 = load i64, ptr %96, align 8
  %98 = load i64, ptr %14, align 8
  %99 = icmp uge i64 %97, %98
  br label %100

100:                                              ; preds = %89, %84
  %101 = phi i1 [ false, %84 ], [ %99, %89 ]
  br i1 %101, label %102, label %107

102:                                              ; preds = %100
  %103 = load ptr, ptr %12, align 8
  %104 = getelementptr inbounds nuw %struct.XLogPageReadPrivate, ptr %103, i32 0, i32 1
  %105 = load i32, ptr %104, align 8
  %106 = add i32 %105, -1
  store i32 %106, ptr %104, align 8
  br label %84, !llvm.loop !7

107:                                              ; preds = %100
  %108 = getelementptr inbounds [64 x i8], ptr %17, i64 0, i64 0
  %109 = load ptr, ptr @targetHistory, align 8
  %110 = load ptr, ptr %12, align 8
  %111 = getelementptr inbounds nuw %struct.XLogPageReadPrivate, ptr %110, i32 0, i32 1
  %112 = load i32, ptr %111, align 8
  %113 = sext i32 %112 to i64
  %114 = getelementptr inbounds %struct.TimeLineHistoryEntry, ptr %109, i64 %113
  %115 = getelementptr inbounds nuw %struct.TimeLineHistoryEntry, ptr %114, i32 0, i32 0
  %116 = load i32, ptr %115, align 8
  %117 = load i64, ptr @xlogreadsegno, align 8
  %118 = load i32, ptr @WalSegSz, align 4
  call void @XLogFileName(ptr noundef %108, i32 noundef %116, i64 noundef %117, i32 noundef %118)
  %119 = load ptr, ptr %7, align 8
  %120 = getelementptr inbounds nuw %struct.XLogReaderState, ptr %119, i32 0, i32 21
  %121 = getelementptr inbounds nuw %struct.WALSegmentContext, ptr %120, i32 0, i32 0
  %122 = getelementptr inbounds [1024 x i8], ptr %121, i64 0, i64 0
  %123 = getelementptr inbounds [64 x i8], ptr %17, i64 0, i64 0
  %124 = call i32 (ptr, i64, ptr, ...) @pg_snprintf(ptr noundef @xlogfpath, i64 noundef 1024, ptr noundef @.str.8, ptr noundef %122, ptr noundef %123)
  %125 = call i32 (ptr, i32, ...) @open(ptr noundef @xlogfpath, i32 noundef 0, i32 noundef 0)
  store i32 %125, ptr @xlogreadfd, align 4
  %126 = load i32, ptr @xlogreadfd, align 4
  %127 = icmp slt i32 %126, 0
  br i1 %127, label %128, label %164

128:                                              ; preds = %107
  %129 = load ptr, ptr %12, align 8
  %130 = getelementptr inbounds nuw %struct.XLogPageReadPrivate, ptr %129, i32 0, i32 0
  %131 = load ptr, ptr %130, align 8
  %132 = icmp eq ptr %131, null
  br i1 %132, label %133, label %134

133:                                              ; preds = %128
  call void (i32, i32, ptr, ...) @pg_log_generic(i32 noundef 4, i32 noundef 0, ptr noundef @.str.9, ptr noundef @xlogfpath)
  store i32 -1, ptr %6, align 4
  store i32 1, ptr %18, align 4
  br label %165

134:                                              ; preds = %128
  %135 = load ptr, ptr %7, align 8
  %136 = getelementptr inbounds nuw %struct.XLogReaderState, ptr %135, i32 0, i32 21
  %137 = getelementptr inbounds nuw %struct.WALSegmentContext, ptr %136, i32 0, i32 0
  %138 = getelementptr inbounds [1024 x i8], ptr %137, i64 0, i64 0
  %139 = getelementptr inbounds [64 x i8], ptr %17, i64 0, i64 0
  %140 = load i32, ptr @WalSegSz, align 4
  %141 = sext i32 %140 to i64
  %142 = load ptr, ptr %12, align 8
  %143 = getelementptr inbounds nuw %struct.XLogPageReadPrivate, ptr %142, i32 0, i32 0
  %144 = load ptr, ptr %143, align 8
  %145 = call i32 @RestoreArchivedFile(ptr noundef %138, ptr noundef %139, i64 noundef %141, ptr noundef %144)
  store i32 %145, ptr @xlogreadfd, align 4
  %146 = load i32, ptr @xlogreadfd, align 4
  %147 = icmp slt i32 %146, 0
  br i1 %147, label %148, label %149

148:                                              ; preds = %134
  store i32 -1, ptr %6, align 4
  store i32 1, ptr %18, align 4
  br label %165

149:                                              ; preds = %134
  br label %150

150:                                              ; preds = %149
  %151 = load i32, ptr @__pg_log_level, align 4
  %152 = icmp ule i32 %151, 1
  %153 = zext i1 %152 to i32
  %154 = icmp ne i32 %153, 0
  %155 = zext i1 %154 to i32
  %156 = sext i32 %155 to i64
  %157 = call i64 @llvm.expect.i64(i64 %156, i64 0)
  %158 = icmp ne i64 %157, 0
  br i1 %158, label %159, label %160

159:                                              ; preds = %150
  call void (i32, i32, ptr, ...) @pg_log_generic(i32 noundef 1, i32 noundef 0, ptr noundef @.str.10, ptr noundef @xlogfpath)
  br label %160

160:                                              ; preds = %159, %150
  br label %161

161:                                              ; preds = %160
  br label %162

162:                                              ; preds = %161
  br label %163

163:                                              ; preds = %162
  br label %164

164:                                              ; preds = %163, %107
  store i32 0, ptr %18, align 4
  br label %165

165:                                              ; preds = %164, %148, %133
  call void @llvm.lifetime.end.p0(i64 64, ptr %17) #8
  %166 = load i32, ptr %18, align 4
  switch i32 %166, label %201 [
    i32 0, label %167
  ]

167:                                              ; preds = %165
  br label %168

168:                                              ; preds = %167, %50
  %169 = load i32, ptr @xlogreadfd, align 4
  %170 = load i32, ptr %13, align 4
  %171 = zext i32 %170 to i64
  %172 = call i64 @lseek(i32 noundef %169, i64 noundef %171, i32 noundef 0) #8
  %173 = icmp slt i64 %172, 0
  br i1 %173, label %174, label %175

174:                                              ; preds = %168
  call void (i32, i32, ptr, ...) @pg_log_generic(i32 noundef 4, i32 noundef 0, ptr noundef @.str.11, ptr noundef @xlogfpath)
  store i32 -1, ptr %6, align 4
  store i32 1, ptr %18, align 4
  br label %201

175:                                              ; preds = %168
  %176 = load i32, ptr @xlogreadfd, align 4
  %177 = load ptr, ptr %11, align 8
  %178 = call i64 @read(i32 noundef %176, ptr noundef %177, i64 noundef 8192)
  %179 = trunc i64 %178 to i32
  store i32 %179, ptr %16, align 4
  %180 = load i32, ptr %16, align 4
  %181 = icmp ne i32 %180, 8192
  br i1 %181, label %182, label %189

182:                                              ; preds = %175
  %183 = load i32, ptr %16, align 4
  %184 = icmp slt i32 %183, 0
  br i1 %184, label %185, label %186

185:                                              ; preds = %182
  call void (i32, i32, ptr, ...) @pg_log_generic(i32 noundef 4, i32 noundef 0, ptr noundef @.str.12, ptr noundef @xlogfpath)
  br label %188

186:                                              ; preds = %182
  %187 = load i32, ptr %16, align 4
  call void (i32, i32, ptr, ...) @pg_log_generic(i32 noundef 4, i32 noundef 0, ptr noundef @.str.13, ptr noundef @xlogfpath, i32 noundef %187, i64 noundef 8192)
  br label %188

188:                                              ; preds = %186, %185
  store i32 -1, ptr %6, align 4
  store i32 1, ptr %18, align 4
  br label %201

189:                                              ; preds = %175
  %190 = load ptr, ptr @targetHistory, align 8
  %191 = load ptr, ptr %12, align 8
  %192 = getelementptr inbounds nuw %struct.XLogPageReadPrivate, ptr %191, i32 0, i32 1
  %193 = load i32, ptr %192, align 8
  %194 = sext i32 %193 to i64
  %195 = getelementptr inbounds %struct.TimeLineHistoryEntry, ptr %190, i64 %194
  %196 = getelementptr inbounds nuw %struct.TimeLineHistoryEntry, ptr %195, i32 0, i32 0
  %197 = load i32, ptr %196, align 8
  %198 = load ptr, ptr %7, align 8
  %199 = getelementptr inbounds nuw %struct.XLogReaderState, ptr %198, i32 0, i32 22
  %200 = getelementptr inbounds nuw %struct.WALOpenSegment, ptr %199, i32 0, i32 2
  store i32 %197, ptr %200, align 8
  store i32 8192, ptr %6, align 4
  store i32 1, ptr %18, align 4
  br label %201

201:                                              ; preds = %189, %188, %174, %165
  call void @llvm.lifetime.end.p0(i64 4, ptr %16) #8
  call void @llvm.lifetime.end.p0(i64 8, ptr %15) #8
  call void @llvm.lifetime.end.p0(i64 8, ptr %14) #8
  call void @llvm.lifetime.end.p0(i64 4, ptr %13) #8
  call void @llvm.lifetime.end.p0(i64 8, ptr %12) #8
  %202 = load i32, ptr %6, align 4
  ret i32 %202
}