; Function Attrs: nounwind uwtable
define internal range(i32 -1, 8193) i32 @SimpleXLogPageRead(ptr noundef %0, i64 noundef %1, i32 %2, i64 %3, ptr noundef captures(none) %4) #0 {
  %6 = alloca [64 x i8], align 16
  %7 = getelementptr inbounds nuw i8, ptr %0, i64 32
  %8 = load ptr, ptr %7, align 8
  %9 = load i32, ptr @WalSegSz, align 4
  %10 = sext i32 %9 to i64
  %11 = udiv i64 %1, %10
  %12 = add i64 %11, 1
  %13 = mul i64 %12, %10
  %14 = add i32 %9, -1
  %15 = trunc i64 %1 to i32
  %16 = and i32 %14, %15
  %17 = load i32, ptr @xlogreadfd, align 4
  %18 = icmp slt i32 %17, 0
  %19 = load i64, ptr @xlogreadsegno, align 8
  %20 = icmp eq i64 %11, %19
  %or.cond = select i1 %18, i1 true, i1 %20
  br i1 %or.cond, label %25, label %.thread

.thread:                                          ; preds = %5
  %21 = tail call i32 @close(i32 noundef %17) #7
  store i32 -1, ptr @xlogreadfd, align 4
  %22 = load i32, ptr @WalSegSz, align 4
  %23 = sext i32 %22 to i64
  %24 = udiv i64 %1, %23
  store i64 %24, ptr @xlogreadsegno, align 8
  br label %26

25:                                               ; preds = %5
  store i64 %11, ptr @xlogreadsegno, align 8
  br i1 %18, label %26, label %77

26:                                               ; preds = %.thread, %25
  %27 = phi i64 [ %24, %.thread ], [ %11, %25 ]
  %28 = phi i64 [ %23, %.thread ], [ %10, %25 ]
  call void @llvm.lifetime.start.p0(i64 64, ptr nonnull %6) #7
  %29 = getelementptr inbounds nuw i8, ptr %8, i64 8
  %30 = load i32, ptr @targetNentries, align 4
  %31 = add i32 %30, -1
  %.promoted = load i32, ptr %29, align 8
  %32 = icmp slt i32 %.promoted, %31
  %.pre50.pre = load ptr, ptr @targetHistory, align 8
  br i1 %32, label %.lr.ph, label %.critedge

.lr.ph:                                           ; preds = %26
  %33 = sext i32 %.promoted to i64
  %wide.trip.count = sext i32 %31 to i64
  %34 = getelementptr inbounds %struct.TimeLineHistoryEntry, ptr %.pre50.pre, i64 %33, i32 2
  %35 = load i64, ptr %34, align 8
  %36 = icmp ult i64 %35, %13
  br i1 %36, label %.lr.ph53, label %.critedge

37:                                               ; preds = %.lr.ph53
  %38 = getelementptr inbounds %struct.TimeLineHistoryEntry, ptr %.pre50.pre, i64 %indvars.iv.next, i32 2
  %39 = load i64, ptr %38, align 8
  %40 = icmp ult i64 %39, %13
  br i1 %40, label %.lr.ph53, label %.critedge, !llvm.loop !7

.lr.ph53:                                         ; preds = %.lr.ph, %37
  %indvars.iv52 = phi i64 [ %indvars.iv.next, %37 ], [ %33, %.lr.ph ]
  %indvars.iv.next = add nsw i64 %indvars.iv52, 1
  %41 = trunc nsw i64 %indvars.iv.next to i32
  store i32 %41, ptr %29, align 8
  %exitcond.not = icmp eq i64 %indvars.iv.next, %wide.trip.count
  br i1 %exitcond.not, label %.critedge, label %37, !llvm.loop !7

.critedge:                                        ; preds = %.lr.ph53, %37, %.lr.ph, %26
  %.pr = phi i32 [ %.promoted, %26 ], [ %.promoted, %.lr.ph ], [ %41, %37 ], [ %41, %.lr.ph53 ]
  %42 = icmp sgt i32 %.pr, 0
  br i1 %42, label %.lr.ph42, label %.critedge2

.lr.ph42:                                         ; preds = %.critedge, %47
  %43 = phi i32 [ %48, %47 ], [ %.pr, %.critedge ]
  %44 = zext nneg i32 %43 to i64
  %45 = getelementptr inbounds nuw %struct.TimeLineHistoryEntry, ptr %.pre50.pre, i64 %44, i32 1
  %46 = load i64, ptr %45, align 8
  %.not = icmp ult i64 %46, %13
  br i1 %.not, label %.critedge2, label %47

47:                                               ; preds = %.lr.ph42
  %48 = add nsw i32 %43, -1
  store i32 %48, ptr %29, align 8
  %49 = icmp sgt i32 %43, 1
  br i1 %49, label %.lr.ph42, label %.critedge2, !llvm.loop !8

.critedge2:                                       ; preds = %.lr.ph42, %47, %.critedge
  %.lcssa = phi i32 [ %.pr, %.critedge ], [ 0, %47 ], [ %43, %.lr.ph42 ]
  %50 = sext i32 %.lcssa to i64
  %51 = getelementptr inbounds %struct.TimeLineHistoryEntry, ptr %.pre50.pre, i64 %50
  %52 = load i32, ptr %51, align 8
  %53 = udiv i64 4294967296, %28
  %54 = udiv i64 %27, %53
  %55 = trunc i64 %54 to i32
  %56 = urem i64 %27, %53
  %57 = trunc nuw i64 %56 to i32
  %58 = call i32 (ptr, i64, ptr, ...) @pg_snprintf(ptr noundef nonnull %6, i64 noundef 64, ptr noundef nonnull @.str.7, i32 noundef %52, i32 noundef %55, i32 noundef %57) #7
  %59 = getelementptr inbounds nuw i8, ptr %0, i64 180
  %60 = call i32 (ptr, i64, ptr, ...) @pg_snprintf(ptr noundef nonnull @xlogfpath, i64 noundef 1024, ptr noundef nonnull @.str.8, ptr noundef nonnull %59, ptr noundef nonnull %6) #7
  %61 = call i32 (ptr, i32, ...) @open(ptr noundef nonnull @xlogfpath, i32 noundef 0, i32 noundef 0) #7
  store i32 %61, ptr @xlogreadfd, align 4
  %62 = icmp slt i32 %61, 0
  br i1 %62, label %63, label %76

63:                                               ; preds = %.critedge2
  %64 = load ptr, ptr %8, align 8
  %65 = icmp eq ptr %64, null
  br i1 %65, label %66, label %67

66:                                               ; preds = %63
  call void (i32, i32, ptr, ...) @pg_log_generic(i32 noundef 4, i32 noundef 0, ptr noundef nonnull @.str.9, ptr noundef nonnull @xlogfpath) #7
  br label %.critedge38

67:                                               ; preds = %63
  %68 = load i32, ptr @WalSegSz, align 4
  %69 = sext i32 %68 to i64
  %70 = call i32 @RestoreArchivedFile(ptr noundef nonnull %59, ptr noundef nonnull %6, i64 noundef %69, ptr noundef nonnull %64) #7
  store i32 %70, ptr @xlogreadfd, align 4
  %71 = icmp slt i32 %70, 0
  br i1 %71, label %.critedge38, label %72

72:                                               ; preds = %67
  %73 = load i32, ptr @__pg_log_level, align 4
  %74 = icmp ult i32 %73, 2
  br i1 %74, label %75, label %76, !prof !9

75:                                               ; preds = %72
  call void (i32, i32, ptr, ...) @pg_log_generic(i32 noundef 1, i32 noundef 0, ptr noundef nonnull @.str.10, ptr noundef nonnull @xlogfpath) #7
  %.pre.pre = load i32, ptr @xlogreadfd, align 4
  br label %76

76:                                               ; preds = %.critedge2, %72, %75
  %.pre = phi i32 [ %61, %.critedge2 ], [ %70, %72 ], [ %.pre.pre, %75 ]
  call void @llvm.lifetime.end.p0(i64 64, ptr nonnull %6) #7
  br label %77

77:                                               ; preds = %76, %25
  %78 = phi i32 [ %.pre, %76 ], [ %17, %25 ]
  %79 = zext i32 %16 to i64
  %80 = call i64 @lseek(i32 noundef %78, i64 noundef %79, i32 noundef 0) #7
  %81 = icmp slt i64 %80, 0
  br i1 %81, label %82, label %83

82:                                               ; preds = %77
  call void (i32, i32, ptr, ...) @pg_log_generic(i32 noundef 4, i32 noundef 0, ptr noundef nonnull @.str.11, ptr noundef nonnull @xlogfpath) #7
  br label %99

83:                                               ; preds = %77
  %84 = load i32, ptr @xlogreadfd, align 4
  %85 = call i64 @read(i32 noundef %84, ptr noundef %4, i64 noundef 8192) #7
  %86 = trunc i64 %85 to i32
  %.not35 = icmp eq i32 %86, 8192
  br i1 %.not35, label %91, label %87

87:                                               ; preds = %83
  %88 = icmp slt i32 %86, 0
  br i1 %88, label %89, label %90

89:                                               ; preds = %87
  call void (i32, i32, ptr, ...) @pg_log_generic(i32 noundef 4, i32 noundef 0, ptr noundef nonnull @.str.12, ptr noundef nonnull @xlogfpath) #7
  br label %99

90:                                               ; preds = %87
  call void (i32, i32, ptr, ...) @pg_log_generic(i32 noundef 4, i32 noundef 0, ptr noundef nonnull @.str.13, ptr noundef nonnull @xlogfpath, i32 noundef %86, i64 noundef 8192) #7
  br label %99

91:                                               ; preds = %83
  %92 = load ptr, ptr @targetHistory, align 8
  %93 = getelementptr inbounds nuw i8, ptr %8, i64 8
  %94 = load i32, ptr %93, align 8
  %95 = sext i32 %94 to i64
  %96 = getelementptr inbounds %struct.TimeLineHistoryEntry, ptr %92, i64 %95
  %97 = load i32, ptr %96, align 8
  %98 = getelementptr inbounds nuw i8, ptr %0, i64 1224
  store i32 %97, ptr %98, align 8
  br label %99

.critedge38:                                      ; preds = %67, %66
  call void @llvm.lifetime.end.p0(i64 64, ptr nonnull %6) #7
  br label %99

99:                                               ; preds = %89, %90, %.critedge38, %91, %82
  %.1 = phi i32 [ -1, %82 ], [ 8192, %91 ], [ -1, %.critedge38 ], [ -1, %90 ], [ -1, %89 ]
  ret i32 %.1
}